#include <math.h>
#include <stdio.h>
#include <stdlib.h>
#include <string.h>
#include <iostream>
using namespace std;

int main()
{
    int A,B,C,D,E,ad,bd,cd,dd,ed;
    ad=(E==1);
    bd=(B==2);
    cd=(A==5);
    dd=(C!=1);
    ed=(D==1);
                                                                                   cout<<5<<" "<<2<<" "<<1<<" "<<3<<" "<<4<<endl;
                               
    return 0;   
}
